target datalayout = "e-m:e-p270:32:32-p271:32:32-p272:64:64-i64:64-i128:128-f80:128-n8:16:32:64-S128"
target triple = "x86_64-pc-linux-gnu"

%class.ZMark = type <{ ptr, ptr, [48 x i8], %class.ZMarkStackAllocator, %class.ZMarkStripeSet, %class.ZMarkTerminate, i64, i64, i64, i64, i64, i64, i32, [36 x i8] }>
%class.ZMarkStackAllocator = type <{ [64 x i8], %class.ZMarkStackSpace, [56 x i8], %class.ZStackList, i8, [63 x i8] }>
%class.ZMarkStackSpace = type <{ %class.ZLock, i64, i64, i64, i8, [7 x i8] }>
%class.ZLock = type { %class.PlatformMutex }
%class.PlatformMutex = type { %union.pthread_mutex_t }
%union.pthread_mutex_t = type { %struct.__pthread_mutex_s }
%struct.__pthread_mutex_s = type { i32, i32, i32, i32, i32, i16, i16, %struct.__pthread_internal_list }
%struct.__pthread_internal_list = type { ptr, ptr }
%class.ZStackList = type { i64, ptr, [48 x i8] }
%class.ZMarkStripeSet = type { i64, [56 x i8], [16 x %class.ZMarkStripe] }
%class.ZMarkStripe = type { %class.ZStackList.1, %class.ZStackList.1 }
%class.ZStackList.1 = type { i64, ptr, [48 x i8] }
%class.ZMarkTerminate = type { i32, i32, i32, i8, %class.ZConditionLock }
%class.ZConditionLock = type { %class.PlatformMonitor }
%class.PlatformMonitor = type { %class.PlatformMutex, %union.pthread_cond_t }
%union.pthread_cond_t = type { %struct.__pthread_cond_s }
%struct.__pthread_cond_s = type { %union.__atomic_wide_counter, %union.__atomic_wide_counter, [2 x i32], [2 x i32], i32, i32, [2 x i32] }
%union.__atomic_wide_counter = type { i64 }
%class.ZMarkContext = type { [8 x i8], %class.ZMarkCache, ptr, ptr, i64, %"class.StringDedup::Requests" }
%class.ZMarkCache = type { i64, [1024 x %class.ZMarkCacheEntry] }
%class.ZMarkCacheEntry = type { ptr, i32, i64 }
%"class.StringDedup::Requests" = type <{ ptr, ptr, i64, i8, [7 x i8] }>
%class.ZMarkThreadLocalStacks = type { ptr, [16 x ptr] }

; Function Attrs: mustprogress nounwind uwtable
define linkonce_odr hidden noundef i64 @_ZNK14ZMarkStripeSet9stripe_idEPK11ZMarkStripe(ptr noundef nonnull align 64 dereferenceable(2112) %0, ptr noundef %1) #1 comdat align 2 {
  %3 = alloca ptr, align 8
  %4 = alloca ptr, align 8
  %5 = alloca i64, align 8
  store ptr %0, ptr %3, align 8
  store ptr %1, ptr %4, align 8
  %6 = load ptr, ptr %3, align 8
  %7 = load ptr, ptr %4, align 8
  %8 = ptrtoint ptr %7 to i64
  %9 = getelementptr inbounds %class.ZMarkStripeSet, ptr %6, i32 0, i32 2
  %10 = getelementptr inbounds [16 x %class.ZMarkStripe], ptr %9, i64 0, i64 0
  %11 = ptrtoint ptr %10 to i64
  %12 = sub i64 %8, %11
  %13 = udiv i64 %12, 128
  store i64 %13, ptr %5, align 8
  %14 = load i64, ptr %5, align 8
  ret i64 %14
}

; Function Attrs: mustprogress nounwind uwtable
define linkonce_odr hidden void @_ZN22ZMarkThreadLocalStacks7installEP14ZMarkStripeSetP11ZMarkStripeP6ZStackI15ZMarkStackEntryLm254EE(ptr noundef nonnull align 8 dereferenceable(136) %0, ptr noundef %1, ptr noundef %2, ptr noundef %3) #1 comdat align 2 {
  %5 = alloca ptr, align 8
  %6 = alloca ptr, align 8
  %7 = alloca ptr, align 8
  %8 = alloca ptr, align 8
  %9 = alloca ptr, align 8
  store ptr %0, ptr %5, align 8
  store ptr %1, ptr %6, align 8
  store ptr %2, ptr %7, align 8
  store ptr %3, ptr %8, align 8
  %10 = load ptr, ptr %5, align 8
  %11 = getelementptr inbounds %class.ZMarkThreadLocalStacks, ptr %10, i32 0, i32 1
  %12 = load ptr, ptr %6, align 8
  %13 = load ptr, ptr %7, align 8
  %14 = call noundef i64 @_ZNK14ZMarkStripeSet9stripe_idEPK11ZMarkStripe(ptr noundef nonnull align 64 dereferenceable(2112) %12, ptr noundef %13)
  %15 = getelementptr inbounds [16 x ptr], ptr %11, i64 0, i64 %14
  store ptr %15, ptr %9, align 8
  %16 = load ptr, ptr %8, align 8
  %17 = load ptr, ptr %9, align 8
  store ptr %16, ptr %17, align 8
  ret void
}

; Function Attrs: mustprogress nounwind uwtable
define linkonce_odr hidden noundef ptr @_ZN22ZMarkThreadLocalStacks5stealEP14ZMarkStripeSetP11ZMarkStripe(ptr noundef nonnull align 8 dereferenceable(136) %0, ptr noundef %1, ptr noundef %2) #1 comdat align 2 {
  %4 = alloca ptr, align 8
  %5 = alloca ptr, align 8
  %6 = alloca ptr, align 8
  %7 = alloca ptr, align 8
  %8 = alloca ptr, align 8
  store ptr %0, ptr %4, align 8
  store ptr %1, ptr %5, align 8
  store ptr %2, ptr %6, align 8
  %9 = load ptr, ptr %4, align 8
  %10 = getelementptr inbounds %class.ZMarkThreadLocalStacks, ptr %9, i32 0, i32 1
  %11 = load ptr, ptr %5, align 8
  %12 = load ptr, ptr %6, align 8
  %13 = call noundef i64 @_ZNK14ZMarkStripeSet9stripe_idEPK11ZMarkStripe(ptr noundef nonnull align 64 dereferenceable(2112) %11, ptr noundef %12)
  %14 = getelementptr inbounds [16 x ptr], ptr %10, i64 0, i64 %13
  store ptr %14, ptr %7, align 8
  %15 = load ptr, ptr %7, align 8
  %16 = load ptr, ptr %15, align 8
  store ptr %16, ptr %8, align 8
  %17 = load ptr, ptr %8, align 8
  %18 = icmp ne ptr %17, null
  br i1 %18, label %19, label %21

19:                                               ; preds = %3
  %20 = load ptr, ptr %7, align 8
  store ptr null, ptr %20, align 8
  br label %21

21:                                               ; preds = %19, %3
  %22 = load ptr, ptr %8, align 8
  ret ptr %22
}

; Function Attrs: mustprogress nounwind uwtable
define linkonce_odr hidden noundef ptr @_ZN14ZMarkStripeSet11stripe_nextEP11ZMarkStripe(ptr noundef nonnull align 64 dereferenceable(2112) %0, ptr noundef %1) #1 comdat align 2 {
  %3 = alloca ptr, align 8
  %4 = alloca ptr, align 8
  %5 = alloca i64, align 8
  store ptr %0, ptr %3, align 8
  store ptr %1, ptr %4, align 8
  %6 = load ptr, ptr %3, align 8
  %7 = load ptr, ptr %4, align 8
  %8 = call noundef i64 @_ZNK14ZMarkStripeSet9stripe_idEPK11ZMarkStripe(ptr noundef nonnull align 64 dereferenceable(2112) %6, ptr noundef %7)
  %9 = add i64 %8, 1
  %10 = and i64 %9, 15
  store i64 %10, ptr %5, align 8
  %11 = getelementptr inbounds %class.ZMarkStripeSet, ptr %6, i32 0, i32 2
  %12 = load i64, ptr %5, align 8
  %13 = getelementptr inbounds [16 x %class.ZMarkStripe], ptr %11, i64 0, i64 %12
  ret ptr %13
}

; Function Attrs: mustprogress nounwind uwtable
define linkonce_odr hidden noundef ptr @_ZN12ZMarkContext6stacksEv(ptr noundef nonnull align 8 dereferenceable(24648) %0) #1 comdat align 2 {
  %2 = alloca ptr, align 8
  store ptr %0, ptr %2, align 8
  %3 = load ptr, ptr %2, align 8
  %4 = getelementptr inbounds %class.ZMarkContext, ptr %3, i32 0, i32 3
  %5 = load ptr, ptr %4, align 8
  ret ptr %5
}

; Function Attrs: mustprogress nounwind uwtable
define linkonce_odr hidden noundef ptr @_ZN12ZMarkContext6stripeEv(ptr noundef nonnull align 8 dereferenceable(24648) %0) #1 comdat align 2 {
  %2 = alloca ptr, align 8
  store ptr %0, ptr %2, align 8
  %3 = load ptr, ptr %2, align 8
  %4 = getelementptr inbounds %class.ZMarkContext, ptr %3, i32 0, i32 2
  %5 = load ptr, ptr %4, align 8
  ret ptr %5
}

; Function Attrs: mustprogress nounwind uwtable
define hidden noundef zeroext i1 @_ZN5ZMark15try_steal_localEP12ZMarkContext(ptr noundef nonnull align 64 dereferenceable(2652) %0, ptr noundef %1) #1 align 2 {
  %3 = alloca i1, align 1
  %4 = alloca ptr, align 8
  %5 = alloca ptr, align 8
  %6 = alloca ptr, align 8
  %7 = alloca ptr, align 8
  %8 = alloca ptr, align 8
  %9 = alloca ptr, align 8
  store ptr %0, ptr %4, align 8
  store ptr %1, ptr %5, align 8
  %10 = load ptr, ptr %4, align 8
  %11 = load ptr, ptr %5, align 8
  %12 = call noundef ptr @_ZN12ZMarkContext6stripeEv(ptr noundef nonnull align 8 dereferenceable(24648) %11)
  store ptr %12, ptr %6, align 8
  %13 = load ptr, ptr %5, align 8
  %14 = call noundef ptr @_ZN12ZMarkContext6stacksEv(ptr noundef nonnull align 8 dereferenceable(24648) %13)
  store ptr %14, ptr %7, align 8
  %15 = getelementptr inbounds %class.ZMark, ptr %10, i32 0, i32 4
  %16 = load ptr, ptr %6, align 8
  %17 = call noundef ptr @_ZN14ZMarkStripeSet11stripe_nextEP11ZMarkStripe(ptr noundef nonnull align 64 dereferenceable(2112) %15, ptr noundef %16)
  store ptr %17, ptr %8, align 8
  br label %18

18:                                               ; preds = %35, %2
  %19 = load ptr, ptr %8, align 8
  %20 = load ptr, ptr %6, align 8
  %21 = icmp ne ptr %19, %20
  br i1 %21, label %22, label %39

22:                                               ; preds = %18
  %23 = load ptr, ptr %7, align 8
  %24 = getelementptr inbounds %class.ZMark, ptr %10, i32 0, i32 4
  %25 = load ptr, ptr %8, align 8
  %26 = call noundef ptr @_ZN22ZMarkThreadLocalStacks5stealEP14ZMarkStripeSetP11ZMarkStripe(ptr noundef nonnull align 8 dereferenceable(136) %23, ptr noundef %24, ptr noundef %25)
  store ptr %26, ptr %9, align 8
  %27 = load ptr, ptr %9, align 8
  %28 = icmp ne ptr %27, null
  br i1 %28, label %29, label %34

29:                                               ; preds = %22
  %30 = load ptr, ptr %7, align 8
  %31 = getelementptr inbounds %class.ZMark, ptr %10, i32 0, i32 4
  %32 = load ptr, ptr %6, align 8
  %33 = load ptr, ptr %9, align 8
  call void @_ZN22ZMarkThreadLocalStacks7installEP14ZMarkStripeSetP11ZMarkStripeP6ZStackI15ZMarkStackEntryLm254EE(ptr noundef nonnull align 8 dereferenceable(136) %30, ptr noundef %31, ptr noundef %32, ptr noundef %33)
  store i1 true, ptr %3, align 1
  br label %40

34:                                               ; preds = %22
  br label %35

35:                                               ; preds = %34
  %36 = getelementptr inbounds %class.ZMark, ptr %10, i32 0, i32 4
  %37 = load ptr, ptr %8, align 8
  %38 = call noundef ptr @_ZN14ZMarkStripeSet11stripe_nextEP11ZMarkStripe(ptr noundef nonnull align 64 dereferenceable(2112) %36, ptr noundef %37)
  store ptr %38, ptr %8, align 8
  br label %18, !llvm.loop !12

39:                                               ; preds = %18
  store i1 false, ptr %3, align 1
  br label %40

40:                                               ; preds = %39, %29
  %41 = load i1, ptr %3, align 1
  ret i1 %41
}

; Function Attrs: mustprogress nounwind uwtable
define hidden noundef zeroext i1 @_ZN5ZMark9try_stealEP12ZMarkContext(ptr noundef nonnull align 64 dereferenceable(2652) %0, ptr noundef %1) #1 align 2 {
  %3 = alloca ptr, align 8
  %4 = alloca ptr, align 8
  store ptr %0, ptr %3, align 8
  store ptr %1, ptr %4, align 8
  %5 = load ptr, ptr %3, align 8
  %6 = load ptr, ptr %4, align 8
  %7 = call noundef zeroext i1 @_ZN5ZMark15try_steal_localEP12ZMarkContext(ptr noundef nonnull align 64 dereferenceable(2652) %5, ptr noundef %6)
  br i1 %7, label %11, label %8

8:                                                ; preds = %2
  %9 = load ptr, ptr %4, align 8
  %10 = call noundef zeroext i1 @_ZN5ZMark16try_steal_globalEP12ZMarkContext(ptr noundef nonnull align 64 dereferenceable(2652) %5, ptr noundef %9)
  br label %11

11:                                               ; preds = %8, %2
  %12 = phi i1 [ true, %2 ], [ %10, %8 ]
  ret i1 %12
}