; Function Attrs: mustprogress nounwind uwtable
define hidden noundef zeroext i1 @_ZN5ZMark9try_stealEP12ZMarkContext(ptr noundef nonnull align 64 dereferenceable(2652) %0, ptr nocapture noundef readonly %1) local_unnamed_addr #0 align 2 {
  %3 = getelementptr inbounds i8, ptr %1, i64 24592
  %4 = load ptr, ptr %3, align 8
  %5 = getelementptr inbounds i8, ptr %1, i64 24600
  %6 = load ptr, ptr %5, align 8
  %7 = ptrtoint ptr %4 to i64
  %8 = getelementptr inbounds i8, ptr %0, i64 448
  %9 = ptrtoint ptr %8 to i64
  %10 = sub i64 %7, %9
  %11 = lshr i64 %10, 7
  %12 = getelementptr inbounds i8, ptr %6, i64 8
  br label %13

13:                                               ; preds = %14, %2
  %.pn.in.in.i = phi i64 [ %11, %2 ], [ %.pn.i, %14 ]
  %.pn.in.i = add nuw nsw i64 %.pn.in.in.i, 1
  %.pn.i = and i64 %.pn.in.i, 15
  %.014.i = getelementptr inbounds [16 x %class.ZMarkStripe], ptr %8, i64 0, i64 %.pn.i
  %.not.not.i.not = icmp eq ptr %.014.i, %4
  br i1 %.not.not.i.not, label %_ZN5ZMark15try_steal_localEP12ZMarkContext.exit, label %14

14:                                               ; preds = %13
  %15 = getelementptr inbounds [16 x ptr], ptr %12, i64 0, i64 %.pn.i
  %16 = load ptr, ptr %15, align 8
  %.not.i.i = icmp eq ptr %16, null
  br i1 %.not.i.i, label %13, label %_ZN5ZMark15try_steal_localEP12ZMarkContext.exit.thread, !llvm.loop !8

_ZN5ZMark15try_steal_localEP12ZMarkContext.exit.thread: ; preds = %14
  %17 = getelementptr inbounds [16 x ptr], ptr %12, i64 0, i64 %.pn.i
  store ptr null, ptr %17, align 8
  %18 = getelementptr inbounds [16 x ptr], ptr %12, i64 0, i64 %11
  store ptr %16, ptr %18, align 8
  br label %20

_ZN5ZMark15try_steal_localEP12ZMarkContext.exit:  ; preds = %13
  %19 = tail call noundef zeroext i1 @_ZN5ZMark16try_steal_globalEP12ZMarkContext(ptr noundef nonnull align 64 dereferenceable(2652) %0, ptr noundef %1)
  br label %20

20:                                               ; preds = %_ZN5ZMark15try_steal_localEP12ZMarkContext.exit.thread, %_ZN5ZMark15try_steal_localEP12ZMarkContext.exit
  %21 = phi i1 [ %19, %_ZN5ZMark15try_steal_localEP12ZMarkContext.exit ], [ true, %_ZN5ZMark15try_steal_localEP12ZMarkContext.exit.thread ]
  ret i1 %21
}